; Function Attrs: nounwind uwtable
define internal range(i32 -12, 1) i32 @config_input(ptr noundef %0) #1 {
  %2 = getelementptr inbounds nuw i8, ptr %0, i64 16
  %3 = load ptr, ptr %2, align 8, !tbaa !43
  %4 = getelementptr inbounds nuw i8, ptr %3, i64 72
  %5 = load ptr, ptr %4, align 8, !tbaa !4
  %6 = getelementptr inbounds nuw i8, ptr %5, i64 404
  %7 = load i32, ptr %6, align 4, !tbaa !28
  %8 = tail call ptr @ff_get_audio_buffer(ptr noundef %0, i32 noundef %7) #6
  %9 = getelementptr inbounds nuw i8, ptr %5, i64 416
  store ptr %8, ptr %9, align 8, !tbaa !61
  %.not = icmp eq ptr %8, null
  %. = select i1 %.not, i32 -12, i32 0
  ret i32 %.
}